target datalayout = "e-m:e-p270:32:32-p271:32:32-p272:64:64-i64:64-i128:128-f80:128-n8:16:32:64-S128"
target triple = "x86_64-pc-linux-gnu"

@.str = private unnamed_addr constant [34 x i8] c"../openssl/crypto/evp/evp_fetch.c\00", align 1
@__func__.evp_set_default_properties_int = private unnamed_addr constant [31 x i8] c"evp_set_default_properties_int\00", align 1

; Function Attrs: nounwind uwtable
define i32 @evp_set_default_properties_int(ptr noundef %0, ptr noundef %1, i32 noundef %2, i32 noundef %3) #0 {
  %5 = alloca i32, align 4
  %6 = alloca ptr, align 8
  %7 = alloca ptr, align 8
  %8 = alloca i32, align 4
  %9 = alloca i32, align 4
  %10 = alloca ptr, align 8
  %11 = alloca i32, align 4
  store ptr %0, ptr %6, align 8, !tbaa !3
  store ptr %1, ptr %7, align 8, !tbaa !10
  store i32 %2, ptr %8, align 4, !tbaa !8
  store i32 %3, ptr %9, align 4, !tbaa !8
  call void @llvm.lifetime.start.p0(i64 8, ptr %10) #6
  store ptr null, ptr %10, align 8, !tbaa !31
  %12 = load ptr, ptr %7, align 8, !tbaa !10
  %13 = icmp ne ptr %12, null
  br i1 %13, label %14, label %20

14:                                               ; preds = %4
  %15 = load ptr, ptr %6, align 8, !tbaa !3
  %16 = load ptr, ptr %7, align 8, !tbaa !10
  %17 = call ptr @ossl_parse_query(ptr noundef %15, ptr noundef %16, i32 noundef 1)
  store ptr %17, ptr %10, align 8, !tbaa !31
  %18 = icmp eq ptr %17, null
  br i1 %18, label %19, label %20

19:                                               ; preds = %14
  call void @ERR_new()
  call void @ERR_set_debug(ptr noundef @.str, i32 noundef 515, ptr noundef @__func__.evp_set_default_properties_int)
  call void (i32, i32, ptr, ...) @ERR_set_error(i32 noundef 6, i32 noundef 210, ptr noundef null)
  store i32 0, ptr %5, align 4
  store i32 1, ptr %11, align 4
  br label %30

20:                                               ; preds = %14, %4
  %21 = load ptr, ptr %6, align 8, !tbaa !3
  %22 = load ptr, ptr %10, align 8, !tbaa !31
  %23 = load i32, ptr %8, align 4, !tbaa !8
  %24 = load i32, ptr %9, align 4, !tbaa !8
  %25 = call i32 @evp_set_parsed_default_properties(ptr noundef %21, ptr noundef %22, i32 noundef %23, i32 noundef %24)
  %26 = icmp ne i32 %25, 0
  br i1 %26, label %29, label %27

27:                                               ; preds = %20
  %28 = load ptr, ptr %10, align 8, !tbaa !31
  call void @ossl_property_free(ptr noundef %28)
  store i32 0, ptr %5, align 4
  store i32 1, ptr %11, align 4
  br label %30

29:                                               ; preds = %20
  store i32 1, ptr %5, align 4
  store i32 1, ptr %11, align 4
  br label %30

30:                                               ; preds = %29, %27, %19
  call void @llvm.lifetime.end.p0(i64 8, ptr %10) #6
  %31 = load i32, ptr %5, align 4
  ret i32 %31
}

; Function Attrs: nounwind uwtable
define i32 @EVP_set_default_properties(ptr noundef %0, ptr noundef %1) #0 {
  %3 = alloca ptr, align 8
  %4 = alloca ptr, align 8
  store ptr %0, ptr %3, align 8, !tbaa !3
  store ptr %1, ptr %4, align 8, !tbaa !10
  %5 = load ptr, ptr %3, align 8, !tbaa !3
  %6 = load ptr, ptr %4, align 8, !tbaa !10
  %7 = call i32 @evp_set_default_properties_int(ptr noundef %5, ptr noundef %6, i32 noundef 1, i32 noundef 0)
  ret i32 %7
}