; Function Attrs: nounwind uwtable
define range(i32 0, 2) i32 @EVP_set_default_properties(ptr noundef %0, ptr noundef %1) local_unnamed_addr #0 {
  %.not.i = icmp eq ptr %1, null
  br i1 %.not.i, label %7, label %3

3:                                                ; preds = %2
  %4 = tail call ptr @ossl_parse_query(ptr noundef %0, ptr noundef nonnull %1, i32 noundef 1) #5
  %5 = icmp eq ptr %4, null
  br i1 %5, label %6, label %7

6:                                                ; preds = %3
  tail call void @ERR_new() #5
  tail call void @ERR_set_debug(ptr noundef nonnull @.str, i32 noundef 515, ptr noundef nonnull @__func__.evp_set_default_properties_int) #5
  tail call void (i32, i32, ptr, ...) @ERR_set_error(i32 noundef 6, i32 noundef 210, ptr noundef null) #5
  br label %evp_set_default_properties_int.exit

7:                                                ; preds = %3, %2
  %.0.i = phi ptr [ %4, %3 ], [ null, %2 ]
  %8 = tail call fastcc i32 @evp_set_parsed_default_properties(ptr noundef %0, ptr noundef %.0.i, i32 noundef 1, i32 noundef 0)
  %.not11.i = icmp eq i32 %8, 0
  br i1 %.not11.i, label %9, label %evp_set_default_properties_int.exit

9:                                                ; preds = %7
  tail call void @ossl_property_free(ptr noundef %.0.i) #5
  br label %evp_set_default_properties_int.exit

evp_set_default_properties_int.exit:              ; preds = %6, %7, %9
  %.08.i = phi i32 [ 0, %6 ], [ 0, %9 ], [ 1, %7 ]
  ret i32 %.08.i
}